target datalayout = "e-m:e-p270:32:32-p271:32:32-p272:64:64-i64:64-i128:128-f80:128-n8:16:32:64-S128"
target triple = "x86_64-pc-linux-gnu"

@hf_mip6_opt_redir_k = internal global i32 0, align 4
@hf_mip6_opt_redir_n = internal global i32 0, align 4
@hf_mip6_opt_redir_reserved = internal global i32 0, align 4
@hf_mip6_opt_redir_addr_r2LMA_ipv6 = internal global i32 0, align 4
@hf_mip6_opt_redir_addr_r2LMA_ipv4 = internal global i32 0, align 4
@ett_mip6_opt_redir = internal global i32 0, align 4
@proto_mip6_option_redir = internal global i32 0, align 4

; Function Attrs: null_pointer_is_valid sspstrong uwtable
define internal i32 @dissect_pmip6_opt_redir(ptr noundef %0, ptr noundef %1, ptr noundef %2, ptr noundef %3) #0 {
  %5 = alloca ptr, align 8
  %6 = alloca ptr, align 8
  %7 = alloca ptr, align 8
  %8 = alloca ptr, align 8
  %9 = alloca ptr, align 8
  %10 = alloca ptr, align 8
  %11 = alloca i32, align 4
  %12 = alloca i32, align 4
  %13 = alloca i16, align 2
  store ptr %0, ptr %5, align 8
  store ptr %1, ptr %6, align 8
  store ptr %2, ptr %7, align 8
  store ptr %3, ptr %8, align 8
  call void @llvm.lifetime.start.p0(i64 8, ptr %9) #6
  call void @llvm.lifetime.start.p0(i64 8, ptr %10) #6
  call void @llvm.lifetime.start.p0(i64 4, ptr %11) #6
  %14 = load ptr, ptr %5, align 8
  %15 = call i32 @tvb_reported_length(ptr noundef %14)
  %16 = sub i32 %15, 2
  store i32 %16, ptr %11, align 4
  call void @llvm.lifetime.start.p0(i64 4, ptr %12) #6
  store i32 2, ptr %12, align 4
  call void @llvm.lifetime.start.p0(i64 2, ptr %13) #6
  %17 = load ptr, ptr %7, align 8
  %18 = load ptr, ptr %6, align 8
  %19 = load ptr, ptr %5, align 8
  %20 = load i32, ptr @proto_mip6_option_redir, align 4
  %21 = load i32, ptr @ett_mip6_opt_redir, align 4
  %22 = load i32, ptr %11, align 4
  %23 = call ptr @mip6_var_option_header(ptr noundef %17, ptr noundef %18, ptr noundef %19, i32 noundef %20, i32 noundef %21, ptr noundef %10, i32 noundef %22, i32 noundef 6)
  store ptr %23, ptr %9, align 8
  %24 = load ptr, ptr %9, align 8
  %25 = load i32, ptr @hf_mip6_opt_redir_k, align 4
  %26 = load ptr, ptr %5, align 8
  %27 = load i32, ptr %12, align 4
  %28 = call ptr @proto_tree_add_item(ptr noundef %24, i32 noundef %25, ptr noundef %26, i32 noundef %27, i32 noundef 2, i32 noundef 0)
  %29 = load ptr, ptr %9, align 8
  %30 = load i32, ptr @hf_mip6_opt_redir_n, align 4
  %31 = load ptr, ptr %5, align 8
  %32 = load i32, ptr %12, align 4
  %33 = call ptr @proto_tree_add_item(ptr noundef %29, i32 noundef %30, ptr noundef %31, i32 noundef %32, i32 noundef 2, i32 noundef 0)
  %34 = load ptr, ptr %9, align 8
  %35 = load i32, ptr @hf_mip6_opt_redir_reserved, align 4
  %36 = load ptr, ptr %5, align 8
  %37 = load i32, ptr %12, align 4
  %38 = call ptr @proto_tree_add_item(ptr noundef %34, i32 noundef %35, ptr noundef %36, i32 noundef %37, i32 noundef 2, i32 noundef 0)
  %39 = load ptr, ptr %5, align 8
  %40 = load i32, ptr %12, align 4
  %41 = call zeroext i16 @tvb_get_ntohs(ptr noundef %39, i32 noundef %40)
  store i16 %41, ptr %13, align 2
  %42 = load i32, ptr %12, align 4
  %43 = add i32 %42, 2
  store i32 %43, ptr %12, align 4
  %44 = load i16, ptr %13, align 2
  %45 = zext i16 %44 to i32
  %46 = and i32 %45, 32768
  %47 = icmp ne i32 %46, 0
  br i1 %47, label %48, label %56

48:                                               ; preds = %4
  %49 = load ptr, ptr %9, align 8
  %50 = load i32, ptr @hf_mip6_opt_redir_addr_r2LMA_ipv6, align 4
  %51 = load ptr, ptr %5, align 8
  %52 = load i32, ptr %12, align 4
  %53 = call ptr @proto_tree_add_item(ptr noundef %49, i32 noundef %50, ptr noundef %51, i32 noundef %52, i32 noundef 16, i32 noundef 0)
  %54 = load i32, ptr %12, align 4
  %55 = add i32 %54, 16
  store i32 %55, ptr %12, align 4
  br label %56

56:                                               ; preds = %48, %4
  %57 = load i16, ptr %13, align 2
  %58 = zext i16 %57 to i32
  %59 = and i32 %58, 16384
  %60 = icmp ne i32 %59, 0
  br i1 %60, label %61, label %67

61:                                               ; preds = %56
  %62 = load ptr, ptr %9, align 8
  %63 = load i32, ptr @hf_mip6_opt_redir_addr_r2LMA_ipv4, align 4
  %64 = load ptr, ptr %5, align 8
  %65 = load i32, ptr %12, align 4
  %66 = call ptr @proto_tree_add_item(ptr noundef %62, i32 noundef %63, ptr noundef %64, i32 noundef %65, i32 noundef 4, i32 noundef 0)
  br label %67

67:                                               ; preds = %61, %56
  %68 = load ptr, ptr %5, align 8
  %69 = call i32 @tvb_captured_length(ptr noundef %68)
  call void @llvm.lifetime.end.p0(i64 2, ptr %13) #6
  call void @llvm.lifetime.end.p0(i64 4, ptr %12) #6
  call void @llvm.lifetime.end.p0(i64 4, ptr %11) #6
  call void @llvm.lifetime.end.p0(i64 8, ptr %10) #6
  call void @llvm.lifetime.end.p0(i64 8, ptr %9) #6
  ret i32 %69
}