; Function Attrs: null_pointer_is_valid sspstrong uwtable
define internal i32 @dissect_pmip6_opt_redir(ptr noundef %0, ptr noundef %1, ptr noundef %2, ptr readnone captures(none) %3) #0 {
  %5 = alloca ptr, align 8
  call void @llvm.lifetime.start.p0(i64 8, ptr nonnull %5) #5
  %6 = tail call i32 @tvb_reported_length(ptr noundef %0)
  %7 = add i32 %6, -2
  %8 = load i32, ptr @proto_mip6_option_redir, align 4
  %9 = load i32, ptr @ett_mip6_opt_redir, align 4
  %10 = call fastcc ptr @mip6_var_option_header(ptr noundef %2, ptr noundef %1, ptr noundef %0, i32 noundef %8, i32 noundef %9, ptr noundef nonnull %5, i32 noundef %7, i32 noundef 6)
  %11 = load i32, ptr @hf_mip6_opt_redir_k, align 4
  %12 = tail call ptr @proto_tree_add_item(ptr noundef %10, i32 noundef %11, ptr noundef %0, i32 noundef 2, i32 noundef 2, i32 noundef 0)
  %13 = load i32, ptr @hf_mip6_opt_redir_n, align 4
  %14 = tail call ptr @proto_tree_add_item(ptr noundef %10, i32 noundef %13, ptr noundef %0, i32 noundef 2, i32 noundef 2, i32 noundef 0)
  %15 = load i32, ptr @hf_mip6_opt_redir_reserved, align 4
  %16 = tail call ptr @proto_tree_add_item(ptr noundef %10, i32 noundef %15, ptr noundef %0, i32 noundef 2, i32 noundef 2, i32 noundef 0)
  %17 = tail call zeroext i16 @tvb_get_ntohs(ptr noundef %0, i32 noundef 2)
  %.not = icmp sgt i16 %17, -1
  br i1 %.not, label %21, label %18

18:                                               ; preds = %4
  %19 = load i32, ptr @hf_mip6_opt_redir_addr_r2LMA_ipv6, align 4
  %20 = tail call ptr @proto_tree_add_item(ptr noundef %10, i32 noundef %19, ptr noundef %0, i32 noundef 4, i32 noundef 16, i32 noundef 0)
  br label %21

21:                                               ; preds = %18, %4
  %.0 = phi i32 [ 20, %18 ], [ 4, %4 ]
  %22 = and i16 %17, 16384
  %.not26 = icmp eq i16 %22, 0
  br i1 %.not26, label %26, label %23

23:                                               ; preds = %21
  %24 = load i32, ptr @hf_mip6_opt_redir_addr_r2LMA_ipv4, align 4
  %25 = tail call ptr @proto_tree_add_item(ptr noundef %10, i32 noundef %24, ptr noundef %0, i32 noundef %.0, i32 noundef 4, i32 noundef 0)
  br label %26

26:                                               ; preds = %23, %21
  %27 = tail call i32 @tvb_captured_length(ptr noundef %0)
  call void @llvm.lifetime.end.p0(i64 8, ptr nonnull %5) #5
  ret i32 %27
}